; Function Attrs: mustprogress uwtable
define void @_ZNK8facebook5velox4core18NestedLoopJoinNode9serializeEv(ptr noalias sret(%"struct.folly::dynamic") align 8 %agg.result, ptr noundef nonnull align 8 dereferenceable(104) %this) unnamed_addr #0 align 2 personality ptr @__gxx_personality_v0 {
entry:
  %ref.tmp = alloca %"struct.folly::dynamic", align 8
  %ref.tmp9 = alloca %"struct.folly::dynamic", align 8
  %ref.tmp19 = alloca %"struct.folly::dynamic", align 8
  tail call void @_ZNK8facebook5velox4core8PlanNode9serializeEv(ptr sret(%"struct.folly::dynamic") align 8 %agg.result, ptr noundef nonnull align 8 dereferenceable(40) %this)
  %joinType_ = getelementptr inbounds i8, ptr %this, i64 40
  %0 = load i32, ptr %joinType_, align 8
  %call = invoke noundef ptr @_ZN8facebook5velox4core12joinTypeNameENS1_8JoinTypeE(i32 noundef %0)
          to label %invoke.cont unwind label %lpad

invoke.cont:                                      ; preds = %entry
  invoke void @_ZN5folly7dynamicC2EPKc(ptr noundef nonnull align 8 dereferenceable(40) %ref.tmp, ptr noundef %call)
          to label %invoke.cont2 unwind label %lpad

invoke.cont2:                                     ; preds = %invoke.cont
  %call6 = invoke noundef nonnull align 8 dereferenceable(40) ptr @_ZNR5folly7dynamicixENS_5RangeIPKcEE(ptr noundef nonnull align 8 dereferenceable(40) %agg.result, ptr nonnull @.str.65, ptr nonnull getelementptr inbounds ([9 x i8], ptr @.str.65, i64 0, i64 8))
          to label %invoke.cont5 unwind label %lpad3

invoke.cont5:                                     ; preds = %invoke.cont2
  %call7 = call noundef nonnull align 8 dereferenceable(40) ptr @_ZN5folly7dynamicaSEOS0_(ptr noundef nonnull align 8 dereferenceable(40) %call6, ptr noundef nonnull align 8 dereferenceable(40) %ref.tmp) #30
  call void @_ZN5folly7dynamic7destroyEv(ptr noundef nonnull align 8 dereferenceable(40) %ref.tmp) #30
  %joinCondition_ = getelementptr inbounds i8, ptr %this, i64 48
  %1 = load ptr, ptr %joinCondition_, align 8
  %cmp.i.not = icmp eq ptr %1, null
  br i1 %cmp.i.not, label %if.end, label %if.then

if.then:                                          ; preds = %invoke.cont5
  %vtable = load ptr, ptr %1, align 8
  %2 = load ptr, ptr %vtable, align 8
  invoke void %2(ptr nonnull sret(%"struct.folly::dynamic") align 8 %ref.tmp9, ptr noundef nonnull align 8 dereferenceable(8) %1)
          to label %invoke.cont12 unwind label %lpad

invoke.cont12:                                    ; preds = %if.then
  %call17 = invoke noundef nonnull align 8 dereferenceable(40) ptr @_ZNR5folly7dynamicixENS_5RangeIPKcEE(ptr noundef nonnull align 8 dereferenceable(40) %agg.result, ptr nonnull @.str.72, ptr nonnull getelementptr inbounds ([14 x i8], ptr @.str.72, i64 0, i64 13))
          to label %invoke.cont16 unwind label %lpad14

invoke.cont16:                                    ; preds = %invoke.cont12
  %call18 = call noundef nonnull align 8 dereferenceable(40) ptr @_ZN5folly7dynamicaSEOS0_(ptr noundef nonnull align 8 dereferenceable(40) %call17, ptr noundef nonnull align 8 dereferenceable(40) %ref.tmp9) #30
  call void @_ZN5folly7dynamic7destroyEv(ptr noundef nonnull align 8 dereferenceable(40) %ref.tmp9) #30
  br label %if.end

lpad:                                             ; preds = %if.end, %if.then, %invoke.cont, %entry
  %3 = landingpad { ptr, i32 }
          cleanup
  br label %ehcleanup

lpad3:                                            ; preds = %invoke.cont2
  %4 = landingpad { ptr, i32 }
          cleanup
  call void @_ZN5folly7dynamic7destroyEv(ptr noundef nonnull align 8 dereferenceable(40) %ref.tmp) #30
  br label %ehcleanup

lpad14:                                           ; preds = %invoke.cont12
  %5 = landingpad { ptr, i32 }
          cleanup
  call void @_ZN5folly7dynamic7destroyEv(ptr noundef nonnull align 8 dereferenceable(40) %ref.tmp9) #30
  br label %ehcleanup

if.end:                                           ; preds = %invoke.cont16, %invoke.cont5
  %outputType_ = getelementptr inbounds i8, ptr %this, i64 88
  %6 = load ptr, ptr %outputType_, align 8
  %vtable21 = load ptr, ptr %6, align 8
  %vfn22 = getelementptr inbounds i8, ptr %vtable21, i64 120
  %7 = load ptr, ptr %vfn22, align 8
  invoke void %7(ptr nonnull sret(%"struct.folly::dynamic") align 8 %ref.tmp19, ptr noundef nonnull align 8 dereferenceable(120) %6)
          to label %invoke.cont23 unwind label %lpad

invoke.cont23:                                    ; preds = %if.end
  %call28 = invoke noundef nonnull align 8 dereferenceable(40) ptr @_ZNR5folly7dynamicixENS_5RangeIPKcEE(ptr noundef nonnull align 8 dereferenceable(40) %agg.result, ptr nonnull @.str.52, ptr nonnull getelementptr inbounds ([11 x i8], ptr @.str.52, i64 0, i64 10))
          to label %invoke.cont27 unwind label %lpad25

invoke.cont27:                                    ; preds = %invoke.cont23
  %call29 = call noundef nonnull align 8 dereferenceable(40) ptr @_ZN5folly7dynamicaSEOS0_(ptr noundef nonnull align 8 dereferenceable(40) %call28, ptr noundef nonnull align 8 dereferenceable(40) %ref.tmp19) #30
  call void @_ZN5folly7dynamic7destroyEv(ptr noundef nonnull align 8 dereferenceable(40) %ref.tmp19) #30
  ret void

lpad25:                                           ; preds = %invoke.cont23
  %8 = landingpad { ptr, i32 }
          cleanup
  call void @_ZN5folly7dynamic7destroyEv(ptr noundef nonnull align 8 dereferenceable(40) %ref.tmp19) #30
  br label %ehcleanup

ehcleanup:                                        ; preds = %lpad25, %lpad14, %lpad3, %lpad
  %.pn = phi { ptr, i32 } [ %8, %lpad25 ], [ %3, %lpad ], [ %5, %lpad14 ], [ %4, %lpad3 ]
  call void @_ZN5folly7dynamic7destroyEv(ptr noundef nonnull align 8 dereferenceable(40) %agg.result) #30
  resume { ptr, i32 } %.pn
}